; Function Attrs: mustprogress nofree norecurse nosync nounwind willreturn memory(argmem: readwrite) uwtable
define noundef nonnull align 8 dereferenceable(16) ptr @_ZN5arrow15BasicDecimal1283AbsEv(ptr noundef nonnull returned align 8 captures(ret: address, provenance) dereferenceable(16) %0) local_unnamed_addr #5 align 2 personality ptr @__gxx_personality_v0 {
  %2 = getelementptr inbounds nuw i8, ptr %0, i64 8
  %3 = load i64, ptr %2, align 8, !tbaa !7
  %4 = icmp slt i64 %3, 0
  br i1 %4, label %_ZN5arrowltERKNS_15BasicDecimal128ES2_.exit, label %_ZN5arrowltERKNS_15BasicDecimal128ES2_.exit.thread

_ZN5arrowltERKNS_15BasicDecimal128ES2_.exit:      ; preds = %1
  %5 = load i64, ptr %0, align 8, !tbaa !7
  %6 = xor i64 %3, -1
  %7 = icmp eq i64 %5, 0
  %8 = sub i64 0, %3
  %9 = sub i64 0, %5
  %.sroa.6.0.i = select i1 %7, i64 %8, i64 %6
  store i64 %9, ptr %0, align 8
  store i64 %.sroa.6.0.i, ptr %2, align 8
  br label %_ZN5arrowltERKNS_15BasicDecimal128ES2_.exit.thread

_ZN5arrowltERKNS_15BasicDecimal128ES2_.exit.thread: ; preds = %1, %_ZN5arrowltERKNS_15BasicDecimal128ES2_.exit
  ret ptr %0
}